target datalayout = "e-m:e-p270:32:32-p271:32:32-p272:64:64-i64:64-i128:128-f80:128-n8:16:32:64-S128"
target triple = "x86_64-pc-linux-gnu"

%struct.rb_code_location_struct = type { %struct.rb_code_position_struct, %struct.rb_code_position_struct }
%struct.rb_code_position_struct = type { i32, i32 }
%struct.lex_context = type { i16, [2 x i8] }
%struct.parser_params = type { ptr, ptr, %struct.anon.12, i64, i64, i32, i32, i32, i32, i32, ptr, ptr, ptr, ptr, i32, i32, ptr, i64, ptr, ptr, ptr, ptr, i64, i64, %struct.anon.13, ptr, i32, ptr, i32, i64, %struct.lex_context, ptr, ptr, ptr, i16, i64, i64, i64, i64, i64, i64 }
%struct.anon.12 = type { ptr, ptr, ptr, %struct.parser_string_buffer, ptr, ptr, ptr, ptr, ptr, ptr, i32, i32, i32, i32 }
%struct.parser_string_buffer = type { ptr, ptr }
%struct.anon.13 = type { ptr, i32, i32, i32, i32 }
%struct.RNode = type { i64, %struct.rb_code_location_struct, i32 }
%struct.RNode_ATTRASGN = type { %struct.RNode, ptr, i64, ptr }

; Function Attrs: inlinehint nounwind sspstrong uwtable
define internal void @nd_set_line(ptr noundef %0, i64 noundef %1) #6 {
  %3 = alloca ptr, align 8
  %4 = alloca i64, align 8
  store ptr %0, ptr %3, align 8, !tbaa !33
  store i64 %1, ptr %4, align 8, !tbaa !16
  %5 = load ptr, ptr %3, align 8, !tbaa !33
  %6 = getelementptr inbounds nuw %struct.RNode, ptr %5, i32 0, i32 0
  %7 = load i64, ptr %6, align 8, !tbaa !175
  %8 = and i64 %7, 32767
  store i64 %8, ptr %6, align 8, !tbaa !175
  %9 = load i64, ptr %4, align 8, !tbaa !16
  %10 = and i64 %9, 562949953421311
  %11 = shl i64 %10, 15
  %12 = load ptr, ptr %3, align 8, !tbaa !33
  %13 = getelementptr inbounds nuw %struct.RNode, ptr %12, i32 0, i32 0
  %14 = load i64, ptr %13, align 8, !tbaa !175
  %15 = or i64 %14, %11
  store i64 %15, ptr %13, align 8, !tbaa !175
  ret void
}

; Function Attrs: nounwind sspstrong uwtable
define internal i32 @parser_get_node_id(ptr noundef %0) #0 {
  %2 = alloca ptr, align 8
  %3 = alloca i32, align 4
  store ptr %0, ptr %2, align 8, !tbaa !6
  call void @llvm.lifetime.start.p0(i64 4, ptr %3) #25
  %4 = load ptr, ptr %2, align 8, !tbaa !6
  %5 = getelementptr inbounds nuw %struct.parser_params, ptr %4, i32 0, i32 26
  %6 = load i32, ptr %5, align 8, !tbaa !670
  store i32 %6, ptr %3, align 4, !tbaa !14
  %7 = load ptr, ptr %2, align 8, !tbaa !6
  %8 = getelementptr inbounds nuw %struct.parser_params, ptr %7, i32 0, i32 26
  %9 = load i32, ptr %8, align 8, !tbaa !670
  %10 = add nsw i32 %9, 1
  store i32 %10, ptr %8, align 8, !tbaa !670
  %11 = load i32, ptr %3, align 4, !tbaa !14
  call void @llvm.lifetime.end.p0(i64 4, ptr %3) #25
  ret i32 %11
}

; Function Attrs: nounwind sspstrong uwtable
define internal ptr @nd_set_loc(ptr noundef %0, ptr noundef %1) #0 {
  %3 = alloca ptr, align 8
  %4 = alloca ptr, align 8
  store ptr %0, ptr %3, align 8, !tbaa !33
  store ptr %1, ptr %4, align 8, !tbaa !22
  %5 = load ptr, ptr %3, align 8, !tbaa !33
  %6 = getelementptr inbounds nuw %struct.RNode, ptr %5, i32 0, i32 1
  %7 = load ptr, ptr %4, align 8, !tbaa !22
  call void @llvm.memcpy.p0.p0.i64(ptr align 8 %6, ptr align 4 %7, i64 16, i1 false), !tbaa.struct !13
  %8 = load ptr, ptr %3, align 8, !tbaa !33
  %9 = load ptr, ptr %4, align 8, !tbaa !22
  %10 = getelementptr inbounds nuw %struct.rb_code_location_struct, ptr %9, i32 0, i32 0
  %11 = getelementptr inbounds nuw %struct.rb_code_position_struct, ptr %10, i32 0, i32 0
  %12 = load i32, ptr %11, align 4, !tbaa !293
  %13 = sext i32 %12 to i64
  call void @nd_set_line(ptr noundef %8, i64 noundef %13)
  %14 = load ptr, ptr %3, align 8, !tbaa !33
  ret ptr %14
}

; Function Attrs: nounwind sspstrong uwtable
define internal ptr @node_new_internal(ptr noundef %0, i32 noundef %1, i64 noundef %2, i64 noundef %3) #0 {
  %5 = alloca ptr, align 8
  %6 = alloca i32, align 4
  %7 = alloca i64, align 8
  %8 = alloca i64, align 8
  %9 = alloca ptr, align 8
  store ptr %0, ptr %5, align 8, !tbaa !6
  store i32 %1, ptr %6, align 4, !tbaa !14
  store i64 %2, ptr %7, align 8, !tbaa !16
  store i64 %3, ptr %8, align 8, !tbaa !16
  call void @llvm.lifetime.start.p0(i64 8, ptr %9) #25
  %10 = load ptr, ptr %5, align 8, !tbaa !6
  %11 = getelementptr inbounds nuw %struct.parser_params, ptr %10, i32 0, i32 25
  %12 = load ptr, ptr %11, align 8, !tbaa !172
  %13 = load i32, ptr %6, align 4, !tbaa !14
  %14 = load i64, ptr %7, align 8, !tbaa !16
  %15 = load i64, ptr %8, align 8, !tbaa !16
  %16 = call ptr @rb_ast_newnode(ptr noundef %12, i32 noundef %13, i64 noundef %14, i64 noundef %15)
  store ptr %16, ptr %9, align 8, !tbaa !33
  %17 = load ptr, ptr %9, align 8, !tbaa !33
  %18 = load i32, ptr %6, align 4, !tbaa !14
  call void @rb_node_init(ptr noundef %17, i32 noundef %18)
  %19 = load ptr, ptr %9, align 8, !tbaa !33
  call void @llvm.lifetime.end.p0(i64 8, ptr %9) #25
  ret ptr %19
}

; Function Attrs: nounwind sspstrong uwtable
define internal ptr @node_newnode(ptr noundef %0, i32 noundef %1, i64 noundef %2, i64 noundef %3, ptr noundef %4) #0 {
  %6 = alloca ptr, align 8
  %7 = alloca i32, align 4
  %8 = alloca i64, align 8
  %9 = alloca i64, align 8
  %10 = alloca ptr, align 8
  %11 = alloca ptr, align 8
  store ptr %0, ptr %6, align 8, !tbaa !6
  store i32 %1, ptr %7, align 4, !tbaa !14
  store i64 %2, ptr %8, align 8, !tbaa !16
  store i64 %3, ptr %9, align 8, !tbaa !16
  store ptr %4, ptr %10, align 8, !tbaa !22
  call void @llvm.lifetime.start.p0(i64 8, ptr %11) #25
  %12 = load ptr, ptr %6, align 8, !tbaa !6
  %13 = load i32, ptr %7, align 4, !tbaa !14
  %14 = load i64, ptr %8, align 8, !tbaa !16
  %15 = load i64, ptr %9, align 8, !tbaa !16
  %16 = call ptr @node_new_internal(ptr noundef %12, i32 noundef %13, i64 noundef %14, i64 noundef %15)
  store ptr %16, ptr %11, align 8, !tbaa !33
  %17 = load ptr, ptr %11, align 8, !tbaa !33
  %18 = load ptr, ptr %10, align 8, !tbaa !22
  %19 = call ptr @nd_set_loc(ptr noundef %17, ptr noundef %18)
  %20 = load ptr, ptr %6, align 8, !tbaa !6
  %21 = call i32 @parser_get_node_id(ptr noundef %20)
  %22 = load ptr, ptr %11, align 8, !tbaa !33
  %23 = getelementptr inbounds nuw %struct.RNode, ptr %22, i32 0, i32 2
  store i32 %21, ptr %23, align 8, !tbaa !798
  %24 = load ptr, ptr %11, align 8, !tbaa !33
  call void @llvm.lifetime.end.p0(i64 8, ptr %11) #25
  ret ptr %24
}

; Function Attrs: nounwind sspstrong uwtable
define internal ptr @rb_node_attrasgn_new(ptr noundef %0, ptr noundef %1, i64 noundef %2, ptr noundef %3, ptr noundef %4) #0 {
  %6 = alloca ptr, align 8
  %7 = alloca ptr, align 8
  %8 = alloca i64, align 8
  %9 = alloca ptr, align 8
  %10 = alloca ptr, align 8
  %11 = alloca ptr, align 8
  store ptr %0, ptr %6, align 8, !tbaa !6
  store ptr %1, ptr %7, align 8, !tbaa !33
  store i64 %2, ptr %8, align 8, !tbaa !16
  store ptr %3, ptr %9, align 8, !tbaa !33
  store ptr %4, ptr %10, align 8, !tbaa !22
  call void @llvm.lifetime.start.p0(i64 8, ptr %11) #25
  %12 = load ptr, ptr %6, align 8, !tbaa !6
  %13 = load ptr, ptr %10, align 8, !tbaa !22
  %14 = call ptr @node_newnode(ptr noundef %12, i32 noundef 103, i64 noundef 56, i64 noundef 8, ptr noundef %13)
  store ptr %14, ptr %11, align 8, !tbaa !901
  %15 = load ptr, ptr %7, align 8, !tbaa !33
  %16 = load ptr, ptr %11, align 8, !tbaa !901
  %17 = getelementptr inbounds nuw %struct.RNode_ATTRASGN, ptr %16, i32 0, i32 1
  store ptr %15, ptr %17, align 8, !tbaa !903
  %18 = load i64, ptr %8, align 8, !tbaa !16
  %19 = load ptr, ptr %11, align 8, !tbaa !901
  %20 = getelementptr inbounds nuw %struct.RNode_ATTRASGN, ptr %19, i32 0, i32 2
  store i64 %18, ptr %20, align 8, !tbaa !904
  %21 = load ptr, ptr %9, align 8, !tbaa !33
  %22 = load ptr, ptr %11, align 8, !tbaa !901
  %23 = getelementptr inbounds nuw %struct.RNode_ATTRASGN, ptr %22, i32 0, i32 3
  store ptr %21, ptr %23, align 8, !tbaa !371
  %24 = load ptr, ptr %11, align 8, !tbaa !901
  call void @llvm.lifetime.end.p0(i64 8, ptr %11) #25
  ret ptr %24
}

; Function Attrs: nounwind sspstrong uwtable
define internal ptr @attrset(ptr noundef %0, ptr noundef %1, i64 noundef %2, i64 noundef %3, ptr noundef %4) #0 {
  %6 = alloca ptr, align 8
  %7 = alloca ptr, align 8
  %8 = alloca i64, align 8
  %9 = alloca i64, align 8
  %10 = alloca ptr, align 8
  store ptr %0, ptr %6, align 8, !tbaa !6
  store ptr %1, ptr %7, align 8, !tbaa !33
  store i64 %2, ptr %8, align 8, !tbaa !16
  store i64 %3, ptr %9, align 8, !tbaa !16
  store ptr %4, ptr %10, align 8, !tbaa !22
  %11 = load i64, ptr %8, align 8, !tbaa !16
  %12 = icmp eq i64 %11, 150
  br i1 %12, label %16, label %13

13:                                               ; preds = %5
  %14 = load i64, ptr %9, align 8, !tbaa !16
  %15 = call i64 @rb_id_attrset(i64 noundef %14)
  store i64 %15, ptr %9, align 8, !tbaa !16
  br label %16

16:                                               ; preds = %13, %5
  %17 = load ptr, ptr %6, align 8, !tbaa !6
  %18 = load ptr, ptr %7, align 8, !tbaa !33
  %19 = load i64, ptr %9, align 8, !tbaa !16
  %20 = load ptr, ptr %10, align 8, !tbaa !22
  %21 = call ptr @rb_node_attrasgn_new(ptr noundef %17, ptr noundef %18, i64 noundef %19, ptr noundef null, ptr noundef %20)
  ret ptr %21
}