; Function Attrs: nounwind sspstrong uwtable
define internal fastcc noundef ptr @attrset(ptr noundef captures(none) %0, ptr noundef %1, i64 noundef %2, i64 noundef %3, ptr noundef nonnull readonly captures(none) %4) unnamed_addr #0 {
  %6 = icmp eq i64 %2, 150
  br i1 %6, label %9, label %7

7:                                                ; preds = %5
  %8 = tail call i64 @rb_id_attrset(i64 noundef %3) #31
  br label %9

9:                                                ; preds = %7, %5
  %.0 = phi i64 [ %3, %5 ], [ %8, %7 ]
  %10 = getelementptr i8, ptr %0, i64 288
  %.val.i.i = load ptr, ptr %10, align 8, !tbaa !120
  %11 = tail call ptr @rb_ast_newnode(ptr noundef %.val.i.i, i32 noundef range(i32 0, 115) 103, i64 noundef range(i64 32, 129) 56, i64 noundef 8) #31
  tail call void @rb_node_init(ptr noundef %11, i32 noundef range(i32 0, 115) 103) #31
  %12 = getelementptr inbounds nuw i8, ptr %11, i64 8
  tail call void @llvm.memcpy.p0.p0.i64(ptr noundef nonnull align 8 dereferenceable(16) %12, ptr noundef nonnull readonly align 4 dereferenceable(16) %4, i64 16, i1 false), !tbaa.struct !11
  %13 = load i32, ptr %4, align 4, !tbaa !51
  %14 = sext i32 %13 to i64
  %15 = load i64, ptr %11, align 8, !tbaa !61
  %16 = and i64 %15, 32767
  %17 = shl nsw i64 %14, 15
  %18 = or disjoint i64 %16, %17
  store i64 %18, ptr %11, align 8, !tbaa !61
  %19 = getelementptr inbounds nuw i8, ptr %0, i64 296
  %20 = load i32, ptr %19, align 8, !tbaa !192
  %21 = add nsw i32 %20, 1
  store i32 %21, ptr %19, align 8, !tbaa !192
  %22 = getelementptr inbounds nuw i8, ptr %11, i64 24
  store i32 %20, ptr %22, align 8, !tbaa !193
  %23 = getelementptr inbounds nuw i8, ptr %11, i64 32
  store ptr %1, ptr %23, align 8, !tbaa !317
  %24 = getelementptr inbounds nuw i8, ptr %11, i64 40
  store i64 %.0, ptr %24, align 8, !tbaa !318
  %25 = getelementptr inbounds nuw i8, ptr %11, i64 48
  store ptr null, ptr %25, align 8, !tbaa !235
  ret ptr %11
}